ccopy_reg
_reconstructor
p0
(cdigits.dataset.images.classification.job
ImageClassificationDatasetJob
p1
c__builtin__
object
p2
Ntp3
Rp4
(dp5
S'username'
p6
Venoon
p7
sS'_notes'
p8
NsS'tasks'
p9
(lp10
g0
(cdigits.dataset.tasks.parse_folder
ParseFolderTask
p11
g2
Ntp12
Rp13
(dp14
S'train_count'
p15
I620
sS'percent_test'
p16
F0.0
sS'labels_file'
p17
S'labels.txt'
p18
sS'percent_val'
p19
F44.0
sS'val_file'
p20
S'val.txt'
p21
sS'pickver_task_parsefolder'
p22
I1
sS'test_count'
p23
I0
sS'max_per_category'
p24
I36
sS'pickver_task'
p25
I1
sS'exception'
p26
NsS'current_resources'
p27
NsS'job_id'
p28
S'20161007-155515-46ca'
p29
sS'train_file'
p30
S'train.txt'
p31
sS'traceback'
p32
NsS'label_count'
p33
I31
sS'job_dir'
p34
S'/home/enoon/libs/DIGITS/digits/jobs/20161007-155515-46ca'
p35
sS'parents'
p36
NsS'progress'
p37
F1.0
sS'folder'
p38
V/home/enoon/data/images/office/amazon
p39
sS'min_per_category'
p40
I36
sS'val_count'
p41
I496
sS'status_history'
p42
(lp43
((idigits.status
Status
p44
S'I'
p46
bF1475848515.519145
tp47
a((idigits.status
Status
p48
S'R'
p49
bF1475848516.80649
tp50
a((idigits.status
Status
p51
S'D'
p52
bF1475848518.040014
tp53
asbag0
(cdigits.dataset.tasks.create_db
CreateDbTask
p54
g2
Ntp55
Rp56
(dp57
g17
g18
sg32
NsS'shuffle'
p58
I01
sS'pickver_task_createdb'
p59
I3
sS'encoding'
p60
Vpng
p61
sS'image_dims'
p62
(I256
I256
I3
tp63
sS'resize_mode'
p64
Vsquash
p65
sS'mean_file'
p66
S'mean.binaryproto'
p67
sS'db_name'
p68
S'train_db'
p69
sS'create_db_log_file'
p70
S'create_train_db.log'
p71
sS'entries_count'
p72
I620
sg25
I1
sS'distribution'
p73
(dp74
V24
p75
I20
sV25
p76
I20
sV26
p77
I20
sV27
p78
I20
sV20
p79
I20
sV21
p80
I20
sV22
p81
I20
sV23
p82
I20
sV28
p83
I20
sV29
p84
I20
sV1
p85
I20
sV0
p86
I20
sV3
p87
I20
sV2
p88
I20
sV5
p89
I20
sV4
p90
I20
sV7
p91
I20
sV6
p92
I20
sV9
p93
I20
sV8
p94
I20
sV11
p95
I20
sV10
p96
I20
sV13
p97
I20
sV12
p98
I20
sV15
p99
I20
sV14
p100
I20
sV17
p101
I20
sV16
p102
I20
sV19
p103
I20
sV18
p104
I20
sV30
p105
I20
ssS'image_folder'
p106
NsS'backend'
p107
Vlmdb
p108
sS'_labels'
p109
(lp110
S'backpack'
p111
aS'bike'
p112
aS'bike helmet'
p113
aS'bookcase'
p114
aS'bottle'
p115
aS'calculator'
p116
aS'desk chair'
p117
aS'desk lamp'
p118
aS'desktop computer'
p119
aS'file cabinet'
p120
aS'headphones'
p121
aS'keyboard'
p122
aS'laptop'
p123
aS'letter tray'
p124
aS'mobile phone'
p125
aS'monitor'
p126
aS'mouse'
p127
aS'mug'
p128
aS'paper notebook'
p129
aS'pen'
p130
aS'phone'
p131
aS'printer'
p132
aS'projector'
p133
aS'punchers'
p134
aS'ring binder'
p135
aS'ruler'
p136
aS'scissors'
p137
aS'speaker'
p138
aS'stapler'
p139
aS'tape dispenser'
p140
aS'trash can'
p141
asg26
Nsg27
NsS'compression'
p142
S'none'
p143
sS'input_file'
p144
g31
sg28
S'20161007-155515-46ca'
p145
sg34
g35
sg36
(lp146
g13
asS'image_channel_order'
p147
S'BGR'
p148
sg37
F1.0
sg42
(lp149
((idigits.status
Status
p150
g46
bF1475848515.519286
tp151
a((idigits.status
Status
p152
g49
bF1475848518.050669
tp153
a((idigits.status
Status
p154
g52
bF1475848521.683999
tp155
asbag0
(g54
g2
Ntp156
Rp157
(dp158
g17
g18
sg32
Nsg58
I01
sg59
I3
sg60
g61
sg62
g63
sg64
g65
sg66
Nsg68
S'val_db'
p159
sg70
S'create_val_db.log'
p160
sg72
I496
sg25
I1
sg73
(dp161
V24
p162
I16
sV25
p163
I16
sV26
p164
I16
sV27
p165
I16
sV20
p166
I16
sV21
p167
I16
sV22
p168
I16
sV23
p169
I16
sV28
p170
I16
sV29
p171
I16
sg85
I16
sg86
I16
sg87
I16
sg88
I16
sg89
I16
sg90
I16
sg91
I16
sg92
I16
sg93
I16
sg94
I16
sV11
p172
I16
sV10
p173
I16
sV13
p174
I16
sV12
p175
I16
sV15
p176
I16
sV14
p177
I16
sV17
p178
I16
sV16
p179
I16
sV19
p180
I16
sV18
p181
I16
sV30
p182
I16
ssg106
Nsg107
g108
sg109
(lp183
S'backpack'
p184
aS'bike'
p185
aS'bike helmet'
p186
aS'bookcase'
p187
aS'bottle'
p188
aS'calculator'
p189
aS'desk chair'
p190
aS'desk lamp'
p191
aS'desktop computer'
p192
aS'file cabinet'
p193
aS'headphones'
p194
aS'keyboard'
p195
aS'laptop'
p196
aS'letter tray'
p197
aS'mobile phone'
p198
aS'monitor'
p199
aS'mouse'
p200
aS'mug'
p201
aS'paper notebook'
p202
aS'pen'
p203
aS'phone'
p204
aS'printer'
p205
aS'projector'
p206
aS'punchers'
p207
aS'ring binder'
p208
aS'ruler'
p209
aS'scissors'
p210
aS'speaker'
p211
aS'stapler'
p212
aS'tape dispenser'
p213
aS'trash can'
p214
asg26
Nsg27
Nsg142
g143
sg144
g21
sg28
S'20161007-155515-46ca'
p215
sg34
g35
sg36
(lp216
g13
asg147
g148
sg37
F1.0
sg42
(lp217
((idigits.status
Status
p218
g46
bF1475848515.519357
tp219
a((idigits.status
Status
p220
g49
bF1475848518.062763
tp221
a((idigits.status
Status
p222
g52
bF1475848521.394958
tp223
asbasg17
g18
sg62
g63
sg64
g65
sS'pickver_job'
p224
I2
sS'pickver_job_dataset_image'
p225
I1
sg26
NsS'group'
p226
VBN Domain Adaptation
p227
sS'pickver_job_dataset_image_classification'
p228
I2
sS'persistent'
p229
I01
sS'_name'
p230
VAmazon31 - Split 0
p231
sS'form_data'
p232
(dp233
S'form.textfile_local_train_images.data'
p234
V
p235
sS'form.resize_height.data'
p236
I256
sS'form.folder_train.data'
p237
g39
sS'form.folder_val_max_per_class.data'
p238
NsS'form.folder_train_min_per_class.data'
p239
I36
sS'form.textfile_val_folder.data'
p240
g235
sS'form.backend.data'
p241
g108
sS'form.method.data'
p242
Vfolder
p243
sS'form.has_test_folder.data'
p244
I00
sS'form.folder_test_max_per_class.data'
p245
NsS'form.textfile_local_labels_file.data'
p246
g235
sS'form.compression.data'
p247
g143
sS'form.folder_val.data'
p248
g235
sS'form.textfile_use_test.data'
p249
I00
sS'form.folder_val_min_per_class.data'
p250
I2
sS'form.has_val_folder.data'
p251
I00
sS'form.dataset_name.data'
p252
g231
sS'form.textfile_shuffle.data'
p253
I1
sS'form.textfile_local_val_images.data'
p254
g235
sS'form.textfile_use_local_files.data'
p255
I00
sS'form.resize_width.data'
p256
I256
sS'form.textfile_train_folder.data'
p257
g235
sS'form.group_name.data'
p258
g227
sS'form.folder_train_max_per_class.data'
p259
I36
sS'form.folder_test.data'
p260
g235
sS'form.folder_test_min_per_class.data'
p261
I2
sS'form.folder_pct_val.data'
p262
I44
sS'form.resize_mode.data'
p263
g65
sS'form.resize_channels.data'
p264
V3
p265
sS'form.textfile_test_folder.data'
p266
g235
sS'form.folder_pct_test.data'
p267
I0
sS'form.encoding.data'
p268
g61
sS'form.textfile_use_val.data'
p269
I01
sS'form.textfile_local_test_images.data'
p270
g235
ssg37
F1.0
sS'_id'
p271
S'20161007-155515-46ca'
p272
sS'pickver_job_dataset'
p273
I1
sg42
(lp274
((idigits.status
Status
p275
g46
bF1475848515.518834
tp276
a((idigits.status
Status
p277
g49
bF1475848516.693242
tp278
a((idigits.status
Status
p279
g52
bF1475848521.932451
tp280
asb.