ccopy_reg
_reconstructor
p0
(cdigits.dataset.images.classification.job
ImageClassificationDatasetJob
p1
c__builtin__
object
p2
Ntp3
Rp4
(dp5
S'username'
p6
Venoon
p7
sS'_notes'
p8
NsS'tasks'
p9
(lp10
g0
(cdigits.dataset.tasks.parse_folder
ParseFolderTask
p11
g2
Ntp12
Rp13
(dp14
S'train_count'
p15
I620
sS'percent_test'
p16
F0.0
sS'labels_file'
p17
S'labels.txt'
p18
sS'percent_val'
p19
F0.0
sS'val_file'
p20
S'val.txt'
p21
sS'pickver_task_parsefolder'
p22
I1
sS'test_count'
p23
I0
sS'max_per_category'
p24
I20
sS'pickver_task'
p25
I1
sS'folder'
p26
V/home/enoon/data/images/office/amazon
p27
sS'exception'
p28
NsS'current_resources'
p29
NsS'job_id'
p30
S'20161021-150436-0ffb'
p31
sS'train_file'
p32
S'train.txt'
p33
sS'traceback'
p34
NsS'label_count'
p35
I31
sS'job_dir'
p36
S'/home/enoon/libs/DIGITS/digits/jobs/20161021-150436-0ffb'
p37
sS'parents'
p38
NsS'progress'
p39
F1.0
sS'min_per_category'
p40
I20
sS'val_count'
p41
I0
sS'status_history'
p42
(lp43
((idigits.status
Status
p44
S'I'
p46
bF1477055076.584501
tp47
a((idigits.status
Status
p48
S'R'
p49
bF1477055078.210464
tp50
a((idigits.status
Status
p51
S'D'
p52
bF1477055082.819071
tp53
asbag0
(cdigits.dataset.tasks.create_db
CreateDbTask
p54
g2
Ntp55
Rp56
(dp57
g17
g18
sg34
NsS'shuffle'
p58
I01
sS'pickver_task_createdb'
p59
I3
sS'encoding'
p60
Vpng
p61
sS'image_dims'
p62
(I256
I256
I3
tp63
sS'resize_mode'
p64
Vsquash
p65
sS'mean_file'
p66
S'mean.binaryproto'
p67
sS'db_name'
p68
S'train_db'
p69
sS'create_db_log_file'
p70
S'create_train_db.log'
p71
sS'entries_count'
p72
I620
sg25
I1
sS'distribution'
p73
(dp74
V24
p75
I20
sV25
p76
I20
sV26
p77
I20
sV27
p78
I20
sV20
p79
I20
sV21
p80
I20
sV22
p81
I20
sV23
p82
I20
sV28
p83
I20
sV29
p84
I20
sV1
p85
I20
sV0
p86
I20
sV3
p87
I20
sV2
p88
I20
sV5
p89
I20
sV4
p90
I20
sV7
p91
I20
sV6
p92
I20
sV9
p93
I20
sV8
p94
I20
sV11
p95
I20
sV10
p96
I20
sV13
p97
I20
sV12
p98
I20
sV15
p99
I20
sV14
p100
I20
sV17
p101
I20
sV16
p102
I20
sV19
p103
I20
sV18
p104
I20
sV30
p105
I20
ssS'image_folder'
p106
NsS'backend'
p107
Vlmdb
p108
sS'_labels'
p109
(lp110
S'backpack'
p111
aS'bike'
p112
aS'bike helmet'
p113
aS'bookcase'
p114
aS'bottle'
p115
aS'calculator'
p116
aS'desk chair'
p117
aS'desk lamp'
p118
aS'desktop computer'
p119
aS'file cabinet'
p120
aS'headphones'
p121
aS'keyboard'
p122
aS'laptop'
p123
aS'letter tray'
p124
aS'mobile phone'
p125
aS'monitor'
p126
aS'mouse'
p127
aS'mug'
p128
aS'paper notebook'
p129
aS'pen'
p130
aS'phone'
p131
aS'printer'
p132
aS'projector'
p133
aS'punchers'
p134
aS'ring binder'
p135
aS'ruler'
p136
aS'scissors'
p137
aS'speaker'
p138
aS'stapler'
p139
aS'tape dispenser'
p140
aS'trash can'
p141
asg28
Nsg29
NsS'compression'
p142
S'none'
p143
sS'input_file'
p144
g33
sg30
S'20161021-150436-0ffb'
p145
sg36
g37
sg38
(lp146
g13
asS'image_channel_order'
p147
S'BGR'
p148
sg39
F1.0
sg42
(lp149
((idigits.status
Status
p150
g46
bF1477055076.584609
tp151
a((idigits.status
Status
p152
g49
bF1477055082.888619
tp153
a((idigits.status
Status
p154
g52
bF1477055090.958885
tp155
asbasg17
g18
sg62
g63
sg64
g65
sS'pickver_job'
p156
I2
sS'pickver_job_dataset_image'
p157
I1
sg28
NsS'group'
p158
VBN Domain Adaptation
p159
sS'pickver_job_dataset'
p160
I1
sS'persistent'
p161
I01
sS'_name'
p162
VAmazon31 - Split 2
p163
sS'form_data'
p164
(dp165
S'form.compression.data'
p166
g143
sS'form.textfile_local_train_images.data'
p167
V
p168
sS'form.resize_height.data'
p169
I256
sS'form.folder_train.data'
p170
g27
sS'form.folder_val_max_per_class.data'
p171
NsS'form.folder_train_min_per_class.data'
p172
I20
sS'form.textfile_val_folder.data'
p173
g168
sS'form.backend.data'
p174
g108
sS'form.method.data'
p175
Vfolder
p176
sS'form.has_test_folder.data'
p177
I00
sS'form.folder_test_max_per_class.data'
p178
NsS'form.folder_train_max_per_class.data'
p179
I20
sS'form.folder_val.data'
p180
g168
sS'form.textfile_use_test.data'
p181
I00
sS'form.folder_val_min_per_class.data'
p182
I2
sS'form.has_val_folder.data'
p183
I00
sS'form.textfile_local_labels_file.data'
p184
g168
sS'form.textfile_use_local_files.data'
p185
I00
sS'form.textfile_local_val_images.data'
p186
g168
sS'form.dataset_name.data'
p187
g163
sS'form.resize_width.data'
p188
I256
sS'form.textfile_train_folder.data'
p189
g168
sS'form.group_name.data'
p190
g159
sS'form.folder_test.data'
p191
g168
sS'form.folder_test_min_per_class.data'
p192
I2
sS'form.folder_pct_val.data'
p193
I0
sS'form.resize_mode.data'
p194
g65
sS'form.resize_channels.data'
p195
V3
p196
sS'form.textfile_test_folder.data'
p197
g168
sS'form.folder_pct_test.data'
p198
I0
sS'form.encoding.data'
p199
g61
sS'form.textfile_use_val.data'
p200
I01
sS'form.textfile_shuffle.data'
p201
I1
sS'form.textfile_local_test_images.data'
p202
g168
ssg39
F1.0
sS'_id'
p203
S'20161021-150436-0ffb'
p204
sS'pickver_job_dataset_image_classification'
p205
I2
sg42
(lp206
((idigits.status
Status
p207
g46
bF1477055076.577341
tp208
a((idigits.status
Status
p209
g49
bF1477055077.997094
tp210
a((idigits.status
Status
p211
g52
bF1477055091.252009
tp212
asb.